; Function Attrs: mustprogress nounwind uwtable
define hidden void @_ZN24LoadStoreConditionalNodeC2EP4NodeS1_S1_S1_S1_(ptr noundef nonnull align 8 dereferenceable(73) %0, ptr noundef %1, ptr noundef %2, ptr noundef %3, ptr noundef %4, ptr noundef %5) unnamed_addr #1 align 2 {
  %7 = load ptr, ptr @_ZN7TypeInt4BOOLE, align 8
  tail call void @_ZN13LoadStoreNodeC2EP4NodeS1_S1_S1_PK7TypePtrPK4Typej(ptr noundef nonnull align 8 dereferenceable(73) %0, ptr noundef %1, ptr noundef %2, ptr noundef %3, ptr noundef %4, ptr noundef null, ptr noundef %7, i32 noundef 5)
  store ptr getelementptr inbounds inrange(-16, 192) (i8, ptr @_ZTV24LoadStoreConditionalNode, i64 16), ptr %0, align 8
  %8 = getelementptr inbounds i8, ptr %0, i64 8
  %9 = load ptr, ptr %8, align 8
  %10 = getelementptr inbounds i8, ptr %9, i64 32
  store ptr %5, ptr %10, align 8
  %.not.i = icmp eq ptr %5, null
  br i1 %.not.i, label %_ZN4Node8init_reqEjPS_.exit, label %11

11:                                               ; preds = %6
  %12 = getelementptr inbounds i8, ptr %5, i64 16
  %13 = load ptr, ptr %12, align 8
  %14 = icmp eq ptr %13, null
  br i1 %14, label %_ZN4Node8init_reqEjPS_.exit, label %15

15:                                               ; preds = %11
  %16 = getelementptr inbounds i8, ptr %5, i64 32
  %17 = load i32, ptr %16, align 8
  %18 = getelementptr inbounds i8, ptr %5, i64 36
  %19 = load i32, ptr %18, align 4
  %20 = icmp eq i32 %17, %19
  br i1 %20, label %21, label %22

21:                                               ; preds = %15
  tail call void @_ZN4Node8out_growEj(ptr noundef nonnull align 8 dereferenceable(52) %5, i32 noundef %17) #13
  %.pre.i.i = load ptr, ptr %12, align 8
  %.pre2.i.i = load i32, ptr %16, align 8
  br label %22

22:                                               ; preds = %21, %15
  %23 = phi i32 [ %.pre2.i.i, %21 ], [ %17, %15 ]
  %24 = phi ptr [ %.pre.i.i, %21 ], [ %13, %15 ]
  %25 = add i32 %23, 1
  store i32 %25, ptr %16, align 8
  %26 = zext i32 %23 to i64
  %27 = getelementptr inbounds ptr, ptr %24, i64 %26
  store ptr %0, ptr %27, align 8
  br label %_ZN4Node8init_reqEjPS_.exit

_ZN4Node8init_reqEjPS_.exit:                      ; preds = %6, %11, %22
  ret void
}